target datalayout = "e-m:e-p270:32:32-p271:32:32-p272:64:64-i64:64-i128:128-f80:128-n8:16:32:64-S128"
target triple = "x86_64-pc-linux-gnu"

%struct.anon = type { i64, double, double, double, double, double, double, double, double, double, double, double }

@.str.26 = private unnamed_addr constant [19 x i8] c"N_VGetArrayPointer\00", align 1
@stderr = external global ptr, align 8
@.str.76 = private unnamed_addr constant [55 x i8] c"\0ASUNDIALS_ERROR: %s() failed - returned NULL pointer\0A\0A\00", align 1
@.str.77 = private unnamed_addr constant [46 x i8] c"\0ASUNDIALS_ERROR: %s() failed with flag = %d\0A\0A\00", align 1
@.str.78 = private unnamed_addr constant [53 x i8] c"\0AMEMORY_ERROR: %s() failed - returned NULL pointer\0A\0A\00", align 1

; Function Attrs: nounwind uwtable
define internal i32 @check_retval(ptr noundef %0, ptr noundef %1, i32 noundef %2) #0 {
  %4 = alloca i32, align 4
  %5 = alloca ptr, align 8
  %6 = alloca ptr, align 8
  %7 = alloca i32, align 4
  %8 = alloca ptr, align 8
  %9 = alloca i32, align 4
  store ptr %0, ptr %5, align 8, !tbaa !17
  store ptr %1, ptr %6, align 8, !tbaa !32
  store i32 %2, ptr %7, align 4, !tbaa !4
  call void @llvm.lifetime.start.p0(i64 8, ptr %8) #8
  %10 = load i32, ptr %7, align 4, !tbaa !4
  %11 = icmp eq i32 %10, 0
  br i1 %11, label %12, label %19

12:                                               ; preds = %3
  %13 = load ptr, ptr %5, align 8, !tbaa !17
  %14 = icmp eq ptr %13, null
  br i1 %14, label %15, label %19

15:                                               ; preds = %12
  %16 = load ptr, ptr @stderr, align 8, !tbaa !55
  %17 = load ptr, ptr %6, align 8, !tbaa !32
  %18 = call i32 (ptr, ptr, ...) @fprintf(ptr noundef %16, ptr noundef @.str.76, ptr noundef %17) #8
  store i32 1, ptr %4, align 4
  store i32 1, ptr %9, align 4
  br label %47

19:                                               ; preds = %12, %3
  %20 = load i32, ptr %7, align 4, !tbaa !4
  %21 = icmp eq i32 %20, 1
  br i1 %21, label %22, label %34

22:                                               ; preds = %19
  %23 = load ptr, ptr %5, align 8, !tbaa !17
  store ptr %23, ptr %8, align 8, !tbaa !57
  %24 = load ptr, ptr %8, align 8, !tbaa !57
  %25 = load i32, ptr %24, align 4, !tbaa !4
  %26 = icmp slt i32 %25, 0
  br i1 %26, label %27, label %33

27:                                               ; preds = %22
  %28 = load ptr, ptr @stderr, align 8, !tbaa !55
  %29 = load ptr, ptr %6, align 8, !tbaa !32
  %30 = load ptr, ptr %8, align 8, !tbaa !57
  %31 = load i32, ptr %30, align 4, !tbaa !4
  %32 = call i32 (ptr, ptr, ...) @fprintf(ptr noundef %28, ptr noundef @.str.77, ptr noundef %29, i32 noundef %31) #8
  store i32 1, ptr %4, align 4
  store i32 1, ptr %9, align 4
  br label %47

33:                                               ; preds = %22
  br label %45

34:                                               ; preds = %19
  %35 = load i32, ptr %7, align 4, !tbaa !4
  %36 = icmp eq i32 %35, 2
  br i1 %36, label %37, label %44

37:                                               ; preds = %34
  %38 = load ptr, ptr %5, align 8, !tbaa !17
  %39 = icmp eq ptr %38, null
  br i1 %39, label %40, label %44

40:                                               ; preds = %37
  %41 = load ptr, ptr @stderr, align 8, !tbaa !55
  %42 = load ptr, ptr %6, align 8, !tbaa !32
  %43 = call i32 (ptr, ptr, ...) @fprintf(ptr noundef %41, ptr noundef @.str.78, ptr noundef %42) #8
  store i32 1, ptr %4, align 4
  store i32 1, ptr %9, align 4
  br label %47

44:                                               ; preds = %37, %34
  br label %45

45:                                               ; preds = %44, %33
  br label %46

46:                                               ; preds = %45
  store i32 0, ptr %4, align 4
  store i32 1, ptr %9, align 4
  br label %47

47:                                               ; preds = %46, %40, %27, %15
  call void @llvm.lifetime.end.p0(i64 8, ptr %8) #8
  %48 = load i32, ptr %4, align 4
  ret i32 %48
}

; Function Attrs: nounwind uwtable
define internal i32 @fsi(double noundef %0, ptr noundef %1, ptr noundef %2, ptr noundef %3) #0 {
  %5 = alloca i32, align 4
  %6 = alloca double, align 8
  %7 = alloca ptr, align 8
  %8 = alloca ptr, align 8
  %9 = alloca ptr, align 8
  %10 = alloca ptr, align 8
  %11 = alloca i64, align 8
  %12 = alloca double, align 8
  %13 = alloca double, align 8
  %14 = alloca double, align 8
  %15 = alloca double, align 8
  %16 = alloca ptr, align 8
  %17 = alloca ptr, align 8
  %18 = alloca double, align 8
  %19 = alloca double, align 8
  %20 = alloca double, align 8
  %21 = alloca double, align 8
  %22 = alloca double, align 8
  %23 = alloca double, align 8
  %24 = alloca double, align 8
  %25 = alloca double, align 8
  %26 = alloca double, align 8
  %27 = alloca double, align 8
  %28 = alloca double, align 8
  %29 = alloca double, align 8
  %30 = alloca i64, align 8
  %31 = alloca i32, align 4
  store double %0, ptr %6, align 8, !tbaa !11
  store ptr %1, ptr %7, align 8, !tbaa !15
  store ptr %2, ptr %8, align 8, !tbaa !15
  store ptr %3, ptr %9, align 8, !tbaa !17
  call void @llvm.lifetime.start.p0(i64 8, ptr %10) #8
  %32 = load ptr, ptr %9, align 8, !tbaa !17
  store ptr %32, ptr %10, align 8, !tbaa !17
  call void @llvm.lifetime.start.p0(i64 8, ptr %11) #8
  %33 = load ptr, ptr %10, align 8, !tbaa !17
  %34 = getelementptr inbounds nuw %struct.anon, ptr %33, i32 0, i32 0
  %35 = load i64, ptr %34, align 8, !tbaa !34
  store i64 %35, ptr %11, align 8, !tbaa !13
  call void @llvm.lifetime.start.p0(i64 8, ptr %12) #8
  %36 = load ptr, ptr %10, align 8, !tbaa !17
  %37 = getelementptr inbounds nuw %struct.anon, ptr %36, i32 0, i32 5
  %38 = load double, ptr %37, align 8, !tbaa !38
  store double %38, ptr %12, align 8, !tbaa !11
  call void @llvm.lifetime.start.p0(i64 8, ptr %13) #8
  %39 = load ptr, ptr %10, align 8, !tbaa !17
  %40 = getelementptr inbounds nuw %struct.anon, ptr %39, i32 0, i32 6
  %41 = load double, ptr %40, align 8, !tbaa !39
  store double %41, ptr %13, align 8, !tbaa !11
  call void @llvm.lifetime.start.p0(i64 8, ptr %14) #8
  %42 = load ptr, ptr %10, align 8, !tbaa !17
  %43 = getelementptr inbounds nuw %struct.anon, ptr %42, i32 0, i32 7
  %44 = load double, ptr %43, align 8, !tbaa !40
  store double %44, ptr %14, align 8, !tbaa !11
  call void @llvm.lifetime.start.p0(i64 8, ptr %15) #8
  %45 = load ptr, ptr %10, align 8, !tbaa !17
  %46 = getelementptr inbounds nuw %struct.anon, ptr %45, i32 0, i32 1
  %47 = load double, ptr %46, align 8, !tbaa !46
  store double %47, ptr %15, align 8, !tbaa !11
  call void @llvm.lifetime.start.p0(i64 8, ptr %16) #8
  store ptr null, ptr %16, align 8, !tbaa !28
  call void @llvm.lifetime.start.p0(i64 8, ptr %17) #8
  store ptr null, ptr %17, align 8, !tbaa !28
  call void @llvm.lifetime.start.p0(i64 8, ptr %18) #8
  call void @llvm.lifetime.start.p0(i64 8, ptr %19) #8
  call void @llvm.lifetime.start.p0(i64 8, ptr %20) #8
  call void @llvm.lifetime.start.p0(i64 8, ptr %21) #8
  call void @llvm.lifetime.start.p0(i64 8, ptr %22) #8
  call void @llvm.lifetime.start.p0(i64 8, ptr %23) #8
  call void @llvm.lifetime.start.p0(i64 8, ptr %24) #8
  call void @llvm.lifetime.start.p0(i64 8, ptr %25) #8
  call void @llvm.lifetime.start.p0(i64 8, ptr %26) #8
  call void @llvm.lifetime.start.p0(i64 8, ptr %27) #8
  call void @llvm.lifetime.start.p0(i64 8, ptr %28) #8
  call void @llvm.lifetime.start.p0(i64 8, ptr %29) #8
  call void @llvm.lifetime.start.p0(i64 8, ptr %30) #8
  %48 = load ptr, ptr %7, align 8, !tbaa !15
  %49 = call ptr @N_VGetArrayPointer(ptr noundef %48)
  store ptr %49, ptr %16, align 8, !tbaa !28
  %50 = load ptr, ptr %16, align 8, !tbaa !28
  %51 = call i32 @check_retval(ptr noundef %50, ptr noundef @.str.26, i32 noundef 0)
  %52 = icmp ne i32 %51, 0
  br i1 %52, label %53, label %54

53:                                               ; preds = %4
  store i32 1, ptr %5, align 4
  store i32 1, ptr %31, align 4
  br label %208

54:                                               ; preds = %4
  %55 = load ptr, ptr %8, align 8, !tbaa !15
  %56 = call ptr @N_VGetArrayPointer(ptr noundef %55)
  store ptr %56, ptr %17, align 8, !tbaa !28
  %57 = load ptr, ptr %17, align 8, !tbaa !28
  %58 = call i32 @check_retval(ptr noundef %57, ptr noundef @.str.26, i32 noundef 0)
  %59 = icmp ne i32 %58, 0
  br i1 %59, label %60, label %61

60:                                               ; preds = %54
  store i32 1, ptr %5, align 4
  store i32 1, ptr %31, align 4
  br label %208

61:                                               ; preds = %54
  %62 = load ptr, ptr %8, align 8, !tbaa !15
  call void @N_VConst(double noundef 0.000000e+00, ptr noundef %62)
  %63 = load double, ptr %12, align 8, !tbaa !11
  %64 = load double, ptr %15, align 8, !tbaa !11
  %65 = fdiv double %63, %64
  %66 = load double, ptr %15, align 8, !tbaa !11
  %67 = fdiv double %65, %66
  store double %67, ptr %18, align 8, !tbaa !11
  %68 = load double, ptr %13, align 8, !tbaa !11
  %69 = load double, ptr %15, align 8, !tbaa !11
  %70 = fdiv double %68, %69
  %71 = load double, ptr %15, align 8, !tbaa !11
  %72 = fdiv double %70, %71
  store double %72, ptr %19, align 8, !tbaa !11
  %73 = load double, ptr %14, align 8, !tbaa !11
  %74 = load double, ptr %15, align 8, !tbaa !11
  %75 = fdiv double %73, %74
  %76 = load double, ptr %15, align 8, !tbaa !11
  %77 = fdiv double %75, %76
  store double %77, ptr %20, align 8, !tbaa !11
  store i64 1, ptr %30, align 8, !tbaa !13
  br label %78

78:                                               ; preds = %180, %61
  %79 = load i64, ptr %30, align 8, !tbaa !13
  %80 = load i64, ptr %11, align 8, !tbaa !13
  %81 = sub nsw i64 %80, 1
  %82 = icmp slt i64 %79, %81
  br i1 %82, label %83, label %183

83:                                               ; preds = %78
  %84 = load ptr, ptr %16, align 8, !tbaa !28
  %85 = load i64, ptr %30, align 8, !tbaa !13
  %86 = mul nsw i64 3, %85
  %87 = add nsw i64 %86, 0
  %88 = getelementptr inbounds double, ptr %84, i64 %87
  %89 = load double, ptr %88, align 8, !tbaa !11
  store double %89, ptr %21, align 8, !tbaa !11
  %90 = load ptr, ptr %16, align 8, !tbaa !28
  %91 = load i64, ptr %30, align 8, !tbaa !13
  %92 = sub nsw i64 %91, 1
  %93 = mul nsw i64 3, %92
  %94 = add nsw i64 %93, 0
  %95 = getelementptr inbounds double, ptr %90, i64 %94
  %96 = load double, ptr %95, align 8, !tbaa !11
  store double %96, ptr %22, align 8, !tbaa !11
  %97 = load ptr, ptr %16, align 8, !tbaa !28
  %98 = load i64, ptr %30, align 8, !tbaa !13
  %99 = add nsw i64 %98, 1
  %100 = mul nsw i64 3, %99
  %101 = add nsw i64 %100, 0
  %102 = getelementptr inbounds double, ptr %97, i64 %101
  %103 = load double, ptr %102, align 8, !tbaa !11
  store double %103, ptr %23, align 8, !tbaa !11
  %104 = load ptr, ptr %16, align 8, !tbaa !28
  %105 = load i64, ptr %30, align 8, !tbaa !13
  %106 = mul nsw i64 3, %105
  %107 = add nsw i64 %106, 1
  %108 = getelementptr inbounds double, ptr %104, i64 %107
  %109 = load double, ptr %108, align 8, !tbaa !11
  store double %109, ptr %24, align 8, !tbaa !11
  %110 = load ptr, ptr %16, align 8, !tbaa !28
  %111 = load i64, ptr %30, align 8, !tbaa !13
  %112 = sub nsw i64 %111, 1
  %113 = mul nsw i64 3, %112
  %114 = add nsw i64 %113, 1
  %115 = getelementptr inbounds double, ptr %110, i64 %114
  %116 = load double, ptr %115, align 8, !tbaa !11
  store double %116, ptr %25, align 8, !tbaa !11
  %117 = load ptr, ptr %16, align 8, !tbaa !28
  %118 = load i64, ptr %30, align 8, !tbaa !13
  %119 = add nsw i64 %118, 1
  %120 = mul nsw i64 3, %119
  %121 = add nsw i64 %120, 1
  %122 = getelementptr inbounds double, ptr %117, i64 %121
  %123 = load double, ptr %122, align 8, !tbaa !11
  store double %123, ptr %26, align 8, !tbaa !11
  %124 = load ptr, ptr %16, align 8, !tbaa !28
  %125 = load i64, ptr %30, align 8, !tbaa !13
  %126 = mul nsw i64 3, %125
  %127 = add nsw i64 %126, 2
  %128 = getelementptr inbounds double, ptr %124, i64 %127
  %129 = load double, ptr %128, align 8, !tbaa !11
  store double %129, ptr %27, align 8, !tbaa !11
  %130 = load ptr, ptr %16, align 8, !tbaa !28
  %131 = load i64, ptr %30, align 8, !tbaa !13
  %132 = sub nsw i64 %131, 1
  %133 = mul nsw i64 3, %132
  %134 = add nsw i64 %133, 2
  %135 = getelementptr inbounds double, ptr %130, i64 %134
  %136 = load double, ptr %135, align 8, !tbaa !11
  store double %136, ptr %28, align 8, !tbaa !11
  %137 = load ptr, ptr %16, align 8, !tbaa !28
  %138 = load i64, ptr %30, align 8, !tbaa !13
  %139 = add nsw i64 %138, 1
  %140 = mul nsw i64 3, %139
  %141 = add nsw i64 %140, 2
  %142 = getelementptr inbounds double, ptr %137, i64 %141
  %143 = load double, ptr %142, align 8, !tbaa !11
  store double %143, ptr %29, align 8, !tbaa !11
  %144 = load double, ptr %22, align 8, !tbaa !11
  %145 = load double, ptr %21, align 8, !tbaa !11
  %146 = call double @llvm.fmuladd.f64(double -2.000000e+00, double %145, double %144)
  %147 = load double, ptr %23, align 8, !tbaa !11
  %148 = fadd double %146, %147
  %149 = load double, ptr %18, align 8, !tbaa !11
  %150 = fmul double %148, %149
  %151 = load ptr, ptr %17, align 8, !tbaa !28
  %152 = load i64, ptr %30, align 8, !tbaa !13
  %153 = mul nsw i64 3, %152
  %154 = add nsw i64 %153, 0
  %155 = getelementptr inbounds double, ptr %151, i64 %154
  store double %150, ptr %155, align 8, !tbaa !11
  %156 = load double, ptr %25, align 8, !tbaa !11
  %157 = load double, ptr %24, align 8, !tbaa !11
  %158 = call double @llvm.fmuladd.f64(double -2.000000e+00, double %157, double %156)
  %159 = load double, ptr %26, align 8, !tbaa !11
  %160 = fadd double %158, %159
  %161 = load double, ptr %19, align 8, !tbaa !11
  %162 = fmul double %160, %161
  %163 = load ptr, ptr %17, align 8, !tbaa !28
  %164 = load i64, ptr %30, align 8, !tbaa !13
  %165 = mul nsw i64 3, %164
  %166 = add nsw i64 %165, 1
  %167 = getelementptr inbounds double, ptr %163, i64 %166
  store double %162, ptr %167, align 8, !tbaa !11
  %168 = load double, ptr %28, align 8, !tbaa !11
  %169 = load double, ptr %27, align 8, !tbaa !11
  %170 = call double @llvm.fmuladd.f64(double -2.000000e+00, double %169, double %168)
  %171 = load double, ptr %29, align 8, !tbaa !11
  %172 = fadd double %170, %171
  %173 = load double, ptr %20, align 8, !tbaa !11
  %174 = fmul double %172, %173
  %175 = load ptr, ptr %17, align 8, !tbaa !28
  %176 = load i64, ptr %30, align 8, !tbaa !13
  %177 = mul nsw i64 3, %176
  %178 = add nsw i64 %177, 2
  %179 = getelementptr inbounds double, ptr %175, i64 %178
  store double %174, ptr %179, align 8, !tbaa !11
  br label %180

180:                                              ; preds = %83
  %181 = load i64, ptr %30, align 8, !tbaa !13
  %182 = add nsw i64 %181, 1
  store i64 %182, ptr %30, align 8, !tbaa !13
  br label %78

183:                                              ; preds = %78
  %184 = load ptr, ptr %17, align 8, !tbaa !28
  %185 = getelementptr inbounds double, ptr %184, i64 2
  store double 0.000000e+00, ptr %185, align 8, !tbaa !11
  %186 = load ptr, ptr %17, align 8, !tbaa !28
  %187 = getelementptr inbounds double, ptr %186, i64 1
  store double 0.000000e+00, ptr %187, align 8, !tbaa !11
  %188 = load ptr, ptr %17, align 8, !tbaa !28
  %189 = getelementptr inbounds double, ptr %188, i64 0
  store double 0.000000e+00, ptr %189, align 8, !tbaa !11
  %190 = load ptr, ptr %17, align 8, !tbaa !28
  %191 = load i64, ptr %11, align 8, !tbaa !13
  %192 = sub nsw i64 %191, 1
  %193 = mul nsw i64 3, %192
  %194 = add nsw i64 %193, 2
  %195 = getelementptr inbounds double, ptr %190, i64 %194
  store double 0.000000e+00, ptr %195, align 8, !tbaa !11
  %196 = load ptr, ptr %17, align 8, !tbaa !28
  %197 = load i64, ptr %11, align 8, !tbaa !13
  %198 = sub nsw i64 %197, 1
  %199 = mul nsw i64 3, %198
  %200 = add nsw i64 %199, 1
  %201 = getelementptr inbounds double, ptr %196, i64 %200
  store double 0.000000e+00, ptr %201, align 8, !tbaa !11
  %202 = load ptr, ptr %17, align 8, !tbaa !28
  %203 = load i64, ptr %11, align 8, !tbaa !13
  %204 = sub nsw i64 %203, 1
  %205 = mul nsw i64 3, %204
  %206 = add nsw i64 %205, 0
  %207 = getelementptr inbounds double, ptr %202, i64 %206
  store double 0.000000e+00, ptr %207, align 8, !tbaa !11
  store i32 0, ptr %5, align 4
  store i32 1, ptr %31, align 4
  br label %208

208:                                              ; preds = %183, %60, %53
  call void @llvm.lifetime.end.p0(i64 8, ptr %30) #8
  call void @llvm.lifetime.end.p0(i64 8, ptr %29) #8
  call void @llvm.lifetime.end.p0(i64 8, ptr %28) #8
  call void @llvm.lifetime.end.p0(i64 8, ptr %27) #8
  call void @llvm.lifetime.end.p0(i64 8, ptr %26) #8
  call void @llvm.lifetime.end.p0(i64 8, ptr %25) #8
  call void @llvm.lifetime.end.p0(i64 8, ptr %24) #8
  call void @llvm.lifetime.end.p0(i64 8, ptr %23) #8
  call void @llvm.lifetime.end.p0(i64 8, ptr %22) #8
  call void @llvm.lifetime.end.p0(i64 8, ptr %21) #8
  call void @llvm.lifetime.end.p0(i64 8, ptr %20) #8
  call void @llvm.lifetime.end.p0(i64 8, ptr %19) #8
  call void @llvm.lifetime.end.p0(i64 8, ptr %18) #8
  call void @llvm.lifetime.end.p0(i64 8, ptr %17) #8
  call void @llvm.lifetime.end.p0(i64 8, ptr %16) #8
  call void @llvm.lifetime.end.p0(i64 8, ptr %15) #8
  call void @llvm.lifetime.end.p0(i64 8, ptr %14) #8
  call void @llvm.lifetime.end.p0(i64 8, ptr %13) #8
  call void @llvm.lifetime.end.p0(i64 8, ptr %12) #8
  call void @llvm.lifetime.end.p0(i64 8, ptr %11) #8
  call void @llvm.lifetime.end.p0(i64 8, ptr %10) #8
  %209 = load i32, ptr %5, align 4
  ret i32 %209
}