; Function Attrs: nounwind uwtable
define internal range(i32 0, 2) i32 @fsi(double %0, ptr noundef %1, ptr noundef %2, ptr noundef readonly captures(none) %3) #0 {
  %5 = load i64, ptr %3, align 8, !tbaa !16
  %6 = getelementptr inbounds nuw i8, ptr %3, i64 40
  %7 = load double, ptr %6, align 8, !tbaa !22
  %8 = getelementptr inbounds nuw i8, ptr %3, i64 48
  %9 = load double, ptr %8, align 8, !tbaa !23
  %10 = getelementptr inbounds nuw i8, ptr %3, i64 56
  %11 = load double, ptr %10, align 8, !tbaa !24
  %12 = getelementptr inbounds nuw i8, ptr %3, i64 8
  %13 = load double, ptr %12, align 8, !tbaa !30
  %14 = tail call ptr @N_VGetArrayPointer(ptr noundef %1) #16
  %15 = icmp eq ptr %14, null
  br i1 %15, label %check_retval.exit, label %18

check_retval.exit:                                ; preds = %4
  %16 = load ptr, ptr @stderr, align 8, !tbaa !12
  %17 = tail call i32 (ptr, ptr, ...) @fprintf(ptr noundef %16, ptr noundef nonnull @.str.76, ptr noundef nonnull @.str.26) #17
  br label %67

18:                                               ; preds = %4
  %19 = tail call ptr @N_VGetArrayPointer(ptr noundef %2) #16
  %20 = icmp eq ptr %19, null
  br i1 %20, label %check_retval.exit72, label %23

check_retval.exit72:                              ; preds = %18
  %21 = load ptr, ptr @stderr, align 8, !tbaa !12
  %22 = tail call i32 (ptr, ptr, ...) @fprintf(ptr noundef %21, ptr noundef nonnull @.str.76, ptr noundef nonnull @.str.26) #17
  br label %67

23:                                               ; preds = %18
  tail call void @N_VConst(double noundef 0.000000e+00, ptr noundef %2) #16
  %24 = fdiv double %7, %13
  %25 = fdiv double %24, %13
  %26 = fdiv double %9, %13
  %27 = fdiv double %26, %13
  %28 = fdiv double %11, %13
  %29 = fdiv double %28, %13
  %30 = add i64 %5, -1
  %31 = icmp sgt i64 %5, 2
  br i1 %31, label %.lr.ph, label %._crit_edge

.lr.ph:                                           ; preds = %23, %.lr.ph
  %.078 = phi i64 [ %37, %.lr.ph ], [ 1, %23 ]
  %32 = mul nuw nsw i64 %.078, 3
  %33 = getelementptr inbounds nuw double, ptr %14, i64 %32
  %34 = load double, ptr %33, align 8, !tbaa !31
  %35 = getelementptr i8, ptr %33, i64 -24
  %36 = load double, ptr %35, align 8, !tbaa !31
  %37 = add nuw nsw i64 %.078, 1
  %.idx77 = mul nuw nsw i64 %37, 24
  %38 = getelementptr inbounds nuw i8, ptr %14, i64 %.idx77
  %39 = load double, ptr %38, align 8, !tbaa !31
  %40 = add nuw nsw i64 %32, 1
  %41 = getelementptr inbounds nuw double, ptr %14, i64 %40
  %42 = load double, ptr %41, align 8, !tbaa !31
  %43 = getelementptr i8, ptr %33, i64 -16
  %44 = load double, ptr %43, align 8, !tbaa !31
  %45 = getelementptr inbounds nuw i8, ptr %38, i64 8
  %46 = load double, ptr %45, align 8, !tbaa !31
  %47 = add nuw nsw i64 %32, 2
  %48 = getelementptr inbounds nuw double, ptr %14, i64 %47
  %49 = load double, ptr %48, align 8, !tbaa !31
  %50 = getelementptr i8, ptr %33, i64 -8
  %51 = load double, ptr %50, align 8, !tbaa !31
  %52 = getelementptr inbounds nuw i8, ptr %38, i64 16
  %53 = load double, ptr %52, align 8, !tbaa !31
  %54 = tail call double @llvm.fmuladd.f64(double %34, double -2.000000e+00, double %36)
  %55 = fadd double %54, %39
  %56 = fmul double %25, %55
  %57 = getelementptr inbounds nuw double, ptr %19, i64 %32
  store double %56, ptr %57, align 8, !tbaa !31
  %58 = tail call double @llvm.fmuladd.f64(double %42, double -2.000000e+00, double %44)
  %59 = fadd double %58, %46
  %60 = fmul double %27, %59
  %61 = getelementptr inbounds nuw double, ptr %19, i64 %40
  store double %60, ptr %61, align 8, !tbaa !31
  %62 = tail call double @llvm.fmuladd.f64(double %49, double -2.000000e+00, double %51)
  %63 = fadd double %62, %53
  %64 = fmul double %29, %63
  %65 = getelementptr inbounds nuw double, ptr %19, i64 %47
  store double %64, ptr %65, align 8, !tbaa !31
  %exitcond.not = icmp eq i64 %37, %30
  br i1 %exitcond.not, label %._crit_edge, label %.lr.ph

._crit_edge:                                      ; preds = %.lr.ph, %23
  %.idx = mul i64 %30, 24
  %66 = getelementptr i8, ptr %19, i64 %.idx
  tail call void @llvm.memset.p0.i64(ptr noundef nonnull align 8 dereferenceable(24) %19, i8 0, i64 24, i1 false)
  tail call void @llvm.memset.p0.i64(ptr noundef nonnull align 8 dereferenceable(24) %66, i8 0, i64 24, i1 false)
  br label %67

67:                                               ; preds = %check_retval.exit72, %check_retval.exit, %._crit_edge
  %.068 = phi i32 [ 0, %._crit_edge ], [ 1, %check_retval.exit ], [ 1, %check_retval.exit72 ]
  ret i32 %.068
}